target datalayout = "e-m:e-p270:32:32-p271:32:32-p272:64:64-i64:64-i128:128-f80:128-n8:16:32:64-S128"
target triple = "x86_64-pc-linux-gnu"

%struct.lua_TValue = type { %union.Value, [1 x i32], i32 }
%union.Value = type { ptr }
%struct.lua_State = type { i8, i8, i8, i8, i8, i8, i8, ptr, ptr, ptr, ptr, ptr, ptr, ptr, ptr, i32, i32, i16, i16, i32, ptr, ptr, ptr, ptr, ptr }
%struct.GCheader = type { i8, i8, i8 }
%struct.global_State = type { %struct.stringtable, ptr, ptr, i8, i8, ptr, ptr, ptr, i64, i64, i32, i32, i32, [40 x ptr], [40 x ptr], ptr, ptr, ptr, [256 x i64], ptr, %struct.UpVal, [11 x ptr], [11 x ptr], [21 x ptr], %struct.lua_TValue, %struct.lua_TValue, i32, ptr, i64, [4 x i64], %struct.lua_Callbacks, %struct.lua_ExecutionCallbacks, [128 x ptr], [128 x ptr], [128 x ptr], %struct.GCStats }
%struct.stringtable = type { ptr, i32, i32 }
%struct.UpVal = type { i8, i8, i8, i8, ptr, %union.anon.3 }
%union.anon.3 = type { %struct.anon.4 }
%struct.anon.4 = type { ptr, ptr, ptr }
%struct.lua_Callbacks = type { ptr, ptr, ptr, ptr, ptr, ptr, ptr, ptr, ptr, ptr }
%struct.lua_ExecutionCallbacks = type { ptr, ptr, ptr, ptr, ptr, ptr, ptr }
%struct.GCStats = type { [32 x i32], i32, i32, i64, i64, i64, double, double, double }
%struct.__va_list_tag = type { i32, i32, ptr, ptr }

; Function Attrs: mustprogress uwtable
define dso_local noundef ptr @_Z16lua_pushfstringLP9lua_StatePKcz(ptr noundef %0, ptr noundef %1, ...) #0 {
  %3 = alloca ptr, align 8
  %4 = alloca ptr, align 8
  %5 = alloca [1 x %struct.__va_list_tag], align 16
  %6 = alloca ptr, align 8
  store ptr %0, ptr %3, align 8, !tbaa !4
  store ptr %1, ptr %4, align 8, !tbaa !62
  %7 = load ptr, ptr %3, align 8, !tbaa !4
  %8 = getelementptr inbounds nuw %struct.lua_State, ptr %7, i32 0, i32 9
  %9 = load ptr, ptr %8, align 8, !tbaa !33
  %10 = getelementptr inbounds nuw %struct.global_State, ptr %9, i32 0, i32 9
  %11 = load i64, ptr %10, align 8, !tbaa !34
  %12 = load ptr, ptr %3, align 8, !tbaa !4
  %13 = getelementptr inbounds nuw %struct.lua_State, ptr %12, i32 0, i32 9
  %14 = load ptr, ptr %13, align 8, !tbaa !33
  %15 = getelementptr inbounds nuw %struct.global_State, ptr %14, i32 0, i32 8
  %16 = load i64, ptr %15, align 8, !tbaa !48
  %17 = icmp uge i64 %11, %16
  br i1 %17, label %18, label %21

18:                                               ; preds = %2
  %19 = load ptr, ptr %3, align 8, !tbaa !4
  %20 = call noundef i64 @_Z9luaC_stepP9lua_Stateb(ptr noundef %19, i1 noundef zeroext true)
  br label %22

21:                                               ; preds = %2
  br label %22

22:                                               ; preds = %21, %18
  %23 = load ptr, ptr %3, align 8, !tbaa !4
  %24 = getelementptr inbounds %struct.lua_State, ptr %23, i64 0
  %25 = getelementptr inbounds nuw %struct.GCheader, ptr %24, i32 0, i32 1
  %26 = load i8, ptr %25, align 1, !tbaa !25
  %27 = zext i8 %26 to i32
  %28 = and i32 %27, 4
  %29 = icmp ne i32 %28, 0
  br i1 %29, label %30, label %36

30:                                               ; preds = %22
  %31 = load ptr, ptr %3, align 8, !tbaa !4
  %32 = load ptr, ptr %3, align 8, !tbaa !4
  %33 = getelementptr inbounds %struct.lua_State, ptr %32, i64 0
  %34 = load ptr, ptr %3, align 8, !tbaa !4
  %35 = getelementptr inbounds nuw %struct.lua_State, ptr %34, i32 0, i32 22
  call void @_Z16luaC_barrierbackP9lua_StateP8GCObjectPS2_(ptr noundef %31, ptr noundef %33, ptr noundef %35)
  br label %36

36:                                               ; preds = %30, %22
  call void @llvm.lifetime.start.p0(i64 24, ptr %5) #11
  %37 = getelementptr inbounds [1 x %struct.__va_list_tag], ptr %5, i64 0, i64 0
  call void @llvm.va_start.p0(ptr %37)
  call void @llvm.lifetime.start.p0(i64 8, ptr %6) #11
  %38 = load ptr, ptr %3, align 8, !tbaa !4
  %39 = load ptr, ptr %4, align 8, !tbaa !62
  %40 = getelementptr inbounds [1 x %struct.__va_list_tag], ptr %5, i64 0, i64 0
  %41 = call noundef ptr @_Z17luaO_pushvfstringP9lua_StatePKcP13__va_list_tag(ptr noundef %38, ptr noundef %39, ptr noundef %40)
  store ptr %41, ptr %6, align 8, !tbaa !62
  %42 = getelementptr inbounds [1 x %struct.__va_list_tag], ptr %5, i64 0, i64 0
  call void @llvm.va_end.p0(ptr %42)
  %43 = load ptr, ptr %6, align 8, !tbaa !62
  call void @llvm.lifetime.end.p0(i64 8, ptr %6) #11
  call void @llvm.lifetime.end.p0(i64 24, ptr %5) #11
  ret ptr %43
}